target datalayout = "e-m:e-p270:32:32-p271:32:32-p272:64:64-i64:64-i128:128-f80:128-n8:16:32:64-S128"
target triple = "x86_64-unknown-linux-gnu"

%struct.QTailQLink = type { ptr, ptr }
%struct.QemuMutex = type { %union.pthread_mutex_t, i8 }
%union.pthread_mutex_t = type { %struct.__pthread_mutex_s }
%struct.__pthread_mutex_s = type { i32, i32, i32, i32, i32, i16, i16, %struct.__pthread_internal_list }
%struct.__pthread_internal_list = type { ptr, ptr }
%union.run_on_cpu_data = type { i64 }
%struct.CPUState = type { %struct.DeviceState, ptr, i32, i32, ptr, i32, i8, i8, ptr, i8, i8, i8, i8, i8, i8, i8, i8, i32, i32, i32, i32, i64, i64, i64, [1 x %struct.__jmp_buf_tag], %struct.QemuMutex, %struct.anon.6, ptr, i32, ptr, ptr, ptr, ptr, i32, i32, %union.anon.7, %union.anon.8, %union.anon.9, ptr, ptr, i64, i32, ptr, ptr, ptr, i32, i64, i32, %struct.QemuLockCnt, [1 x i64], ptr, i32, i32, i32, i32, i32, ptr, i8, i8, i64, i8, i8, ptr, [8 x i8], [0 x i8], %struct.CPUNegativeOffsetState }
%struct.DeviceState = type { %struct.Object, ptr, ptr, i8, i8, i64, ptr, i32, i8, ptr, %struct.NamedGPIOListHead, %struct.NamedClockListHead, %struct.BusStateHead, i32, i32, i32, %struct.ResettableState, ptr, %struct.MemReentrancyGuard }
%struct.Object = type { ptr, ptr, ptr, i32, ptr }
%struct.NamedGPIOListHead = type { ptr }
%struct.NamedClockListHead = type { ptr }
%struct.BusStateHead = type { ptr }
%struct.ResettableState = type { i32, i8, i8 }
%struct.MemReentrancyGuard = type { i8 }
%struct.__jmp_buf_tag = type { [8 x i64], i32, %struct.__sigset_t }
%struct.__sigset_t = type { [16 x i64] }
%struct.anon.6 = type { ptr, ptr }
%union.anon.7 = type { %struct.QTailQLink }
%union.anon.8 = type { %struct.QTailQLink }
%union.anon.9 = type { %struct.QTailQLink }
%struct.QemuLockCnt = type { i32 }
%struct.CPUNegativeOffsetState = type { %struct.CPUTLB, %union.IcountDecr, i8, [11 x i8] }
%struct.CPUTLB = type { %struct.CPUTLBCommon, [16 x %struct.CPUTLBDesc], [16 x %struct.CPUTLBDescFast] }
%struct.CPUTLBCommon = type { %struct.QemuSpin, i16, i64, i64, i64 }
%struct.QemuSpin = type { i32 }
%struct.CPUTLBDesc = type { i64, i64, i64, i64, i64, i64, [8 x %union.CPUTLBEntry], [8 x %struct.CPUTLBEntryFull], ptr }
%union.CPUTLBEntry = type { %struct.anon.10 }
%struct.anon.10 = type { i64, i64, i64, i64 }
%struct.CPUTLBEntryFull = type { i64, i64, %struct.MemTxAttrs, i8, i8, [3 x i8], %union.anon.11 }
%struct.MemTxAttrs = type { i32 }
%union.anon.11 = type { %struct.anon.12 }
%struct.anon.12 = type { i8, i8, i8 }
%struct.CPUTLBDescFast = type { i64, ptr }
%union.IcountDecr = type { i32 }

@.str.3 = private unnamed_addr constant [25 x i8] c"../qemu/plugins/loader.c\00", align 1
@__func__.plugin_flush_destroy = private unnamed_addr constant [21 x i8] c"plugin_flush_destroy\00", align 1
@.str.25 = private unnamed_addr constant [30 x i8] c"cpu_in_exclusive_context(cpu)\00", align 1

; Function Attrs: nounwind sspstrong uwtable
define internal zeroext i1 @cpu_in_exclusive_context(ptr noundef %cpu) #0 {
entry:
  %cpu.addr = alloca ptr, align 8
  store ptr %cpu, ptr %cpu.addr, align 8
  %0 = load ptr, ptr %cpu.addr, align 8
  %exclusive_context_count = getelementptr inbounds %struct.CPUState, ptr %0, i32 0, i32 17
  %1 = load i32, ptr %exclusive_context_count, align 16
  %tobool = icmp ne i32 %1, 0
  ret i1 %tobool
}

; Function Attrs: nounwind sspstrong uwtable
define internal void @plugin_flush_destroy(ptr noundef %cpu, i64 %arg.coerce) #0 {
entry:
  %arg = alloca %union.run_on_cpu_data, align 8
  %cpu.addr = alloca ptr, align 8
  %data = alloca ptr, align 8
  %coerce.dive = getelementptr inbounds %union.run_on_cpu_data, ptr %arg, i32 0, i32 0
  store i64 %arg.coerce, ptr %coerce.dive, align 8
  store ptr %cpu, ptr %cpu.addr, align 8
  %0 = load ptr, ptr %arg, align 8
  store ptr %0, ptr %data, align 8
  br label %do.body

do.body:                                          ; preds = %entry
  %1 = load ptr, ptr %cpu.addr, align 8
  %call = call zeroext i1 @cpu_in_exclusive_context(ptr noundef %1)
  br i1 %call, label %if.then, label %if.else

if.then:                                          ; preds = %do.body
  br label %if.end

if.else:                                          ; preds = %do.body
  call void @g_assertion_message_expr(ptr noundef null, ptr noundef @.str.3, i32 noundef 384, ptr noundef @__func__.plugin_flush_destroy, ptr noundef @.str.25) #8
  unreachable

if.end:                                           ; preds = %if.then
  br label %do.end

do.end:                                           ; preds = %if.end
  %2 = load ptr, ptr %cpu.addr, align 8
  call void @tb_flush(ptr noundef %2)
  %3 = load ptr, ptr %data, align 8
  call void @plugin_reset_destroy(ptr noundef %3)
  ret void
}