; Function Attrs: nounwind sspstrong uwtable
define internal void @plugin_flush_destroy(ptr noundef %cpu, i64 %arg.coerce) #0 {
entry:
  %0 = getelementptr i8, ptr %cpu, i64 208
  %cpu.val = load i32, ptr %0, align 16
  %tobool.i.not = icmp eq i32 %cpu.val, 0
  br i1 %tobool.i.not, label %if.else, label %do.end

if.else:                                          ; preds = %entry
  tail call void @g_assertion_message_expr(ptr noundef null, ptr noundef nonnull @.str.3, i32 noundef 384, ptr noundef nonnull @__func__.plugin_flush_destroy, ptr noundef nonnull @.str.25) #12
  unreachable

do.end:                                           ; preds = %entry
  %1 = inttoptr i64 %arg.coerce to ptr
  tail call void @tb_flush(ptr noundef nonnull %cpu) #11
  tail call fastcc void @plugin_reset_destroy(ptr noundef %1)
  ret void
}